Certificate:
    Data:
        Version: 3 (0x2)
        Serial Number: 1 (0x1)
        Signature Algorithm: sha256WithRSAEncryption
        Issuer: C=SE, ST=Stockholm, L=Stockholm, O=KTH, OU=Student, CN=Tangyujun Han tanghan@kth.se CA/emailAddress=tanghan@kth.se
        Validity
            Not Before: Dec  8 10:34:52 2022 GMT
            Not After : Dec  8 10:34:52 2023 GMT
        Subject: C=SE, ST=Stockholm, O=KTH, OU=Student, CN=Tangyujun Han tanghan@kth.se User/emailAddress=tanghan@kth.se
        Subject Public Key Info:
            Public Key Algorithm: rsaEncryption
                Public-Key: (2048 bit)
                Modulus:
                    00:9f:b3:9a:5c:7f:e2:f7:cf:7e:bb:ef:0a:64:22:
                    b6:8e:07:cb:47:77:01:24:a1:60:e6:b8:36:54:2e:
                    7a:c7:f9:97:71:c9:2a:38:9d:76:6b:95:d3:4e:22:
                    9c:7c:c7:6d:57:87:b5:0d:ea:a8:1e:d0:f8:dd:76:
                    22:b3:59:c2:c9:ba:9a:36:e5:5d:01:a0:9e:89:8d:
                    67:8e:45:cb:3f:f3:9c:2a:77:3f:da:48:de:66:7e:
                    d7:ca:08:eb:9c:97:67:cf:be:c6:cc:32:df:b1:44:
                    10:82:6f:b2:3e:9c:c8:4c:1c:25:66:5b:b5:7c:22:
                    10:66:38:7b:37:06:bf:89:13:be:34:2e:d2:ab:35:
                    02:d8:7f:ab:fd:5c:1a:9d:5d:99:de:08:ed:7b:3d:
                    17:90:89:46:8b:34:ba:07:18:7a:74:1f:2f:29:af:
                    04:9f:28:ad:7d:cc:fa:55:0f:85:a0:10:9e:dd:0c:
                    43:d6:c7:d2:be:3c:b8:4f:a0:c0:c7:1c:db:f7:12:
                    d5:d9:f7:00:11:25:2b:98:34:26:b0:54:43:87:c6:
                    b5:97:a3:b3:2d:b8:57:fe:45:6a:d4:c3:ea:48:7f:
                    67:e2:2d:b4:5a:c5:01:ec:ee:69:be:77:e8:dc:56:
                    6e:21:56:0d:99:0c:d5:f3:93:ae:9d:51:11:d7:dd:
                    89:29
                Exponent: 65537 (0x10001)
        X509v3 extensions:
            X509v3 Basic Constraints: 
                CA:FALSE
            X509v3 Subject Key Identifier: 
                1E:5A:DB:41:F7:3B:00:58:78:B4:D6:D1:43:E3:1D:1C:A6:B5:26:49
            X509v3 Authority Key Identifier: 
                DirName:/C=SE/ST=Stockholm/L=Stockholm/O=KTH/OU=Student/CN=Tangyujun Han tanghan@kth.se CA/emailAddress=tanghan@kth.se
                serial:3C:04:31:7C:A5:9D:AE:65:8A:8B:4A:5C:C7:53:D0:34:E3:14:43:33
    Signature Algorithm: sha256WithRSAEncryption
    Signature Value:
        a1:e8:fe:44:0d:cb:dd:90:01:51:21:28:30:0e:5f:15:04:69:
        da:21:73:31:9b:d9:0b:a5:e8:74:13:97:16:ec:40:2d:6b:ce:
        3d:1c:31:67:db:a1:f3:7f:16:f9:54:21:e5:b2:52:4c:44:a5:
        74:b3:de:36:69:3a:05:10:e1:d5:08:b9:37:a2:25:30:a9:6e:
        db:db:44:07:d6:fe:54:77:8e:da:eb:27:8d:7c:4a:33:9c:24:
        2b:b2:9b:4a:42:ce:04:0c:ba:ab:d3:5e:01:76:01:34:f6:f9:
        10:7d:37:e3:9c:2d:4e:44:7d:f5:ee:f8:71:8e:85:d6:cb:da:
        1b:80:51:c8:10:56:8f:ca:4b:56:02:d5:bf:55:65:bb:b4:68:
        6e:c9:57:57:12:e9:00:97:a5:d2:40:aa:a9:0e:60:5e:f4:78:
        34:f8:4f:b2:10:e5:d9:79:a2:45:04:76:41:43:85:7c:f5:ab:
        50:17:12:48:bd:40:b6:0f:24:3f:16:56:ee:71:65:78:47:df:
        6e:01:ab:47:30:2c:43:1b:ef:a0:81:d4:4e:98:bc:3b:ee:03:
        0e:e7:fd:ab:8f:fb:b4:0c:2b:8d:7d:72:48:14:58:6c:67:87:
        c0:5c:69:05:52:ec:8d:19:ff:cb:1e:23:81:b1:5a:97:da:72:
        e4:d6:27:8c
-----BEGIN CERTIFICATE-----
MIIEoDCCA4igAwIBAgIBATANBgkqhkiG9w0BAQsFADCBnjELMAkGA1UEBhMCU0Ux
EjAQBgNVBAgMCVN0b2NraG9sbTESMBAGA1UEBwwJU3RvY2tob2xtMQwwCgYDVQQK
DANLVEgxEDAOBgNVBAsMB1N0dWRlbnQxKDAmBgNVBAMMH1Rhbmd5dWp1biBIYW4g
dGFuZ2hhbkBrdGguc2UgQ0ExHTAbBgkqhkiG9w0BCQEWDnRhbmdoYW5Aa3RoLnNl
MB4XDTIyMTIwODEwMzQ1MloXDTIzMTIwODEwMzQ1MlowgYwxCzAJBgNVBAYTAlNF
MRIwEAYDVQQIDAlTdG9ja2hvbG0xDDAKBgNVBAoMA0tUSDEQMA4GA1UECwwHU3R1
ZGVudDEqMCgGA1UEAwwhVGFuZ3l1anVuIEhhbiB0YW5naGFuQGt0aC5zZSBVc2Vy
MR0wGwYJKoZIhvcNAQkBFg50YW5naGFuQGt0aC5zZTCCASIwDQYJKoZIhvcNAQEB
BQADggEPADCCAQoCggEBAJ+zmlx/4vfPfrvvCmQito4Hy0d3ASShYOa4NlQuesf5
l3HJKjiddmuV004inHzHbVeHtQ3qqB7Q+N12IrNZwsm6mjblXQGgnomNZ45Fyz/z
nCp3P9pI3mZ+18oI65yXZ8++xswy37FEEIJvsj6cyEwcJWZbtXwiEGY4ezcGv4kT
vjQu0qs1Ath/q/1cGp1dmd4I7Xs9F5CJRos0ugcYenQfLymvBJ8orX3M+lUPhaAQ
nt0MQ9bH0r48uE+gwMcc2/cS1dn3ABElK5g0JrBUQ4fGtZejsy24V/5FatTD6kh/
Z+IttFrFAezuab536NxWbiFWDZkM1fOTrp1REdfdiSkCAwEAAaOB+DCB9TAJBgNV
HRMEAjAAMB0GA1UdDgQWBBQeWttB9zsAWHi01tFD4x0cprUmSTCByAYDVR0jBIHA
MIG9oYGkpIGhMIGeMQswCQYDVQQGEwJTRTESMBAGA1UECAwJU3RvY2tob2xtMRIw
EAYDVQQHDAlTdG9ja2hvbG0xDDAKBgNVBAoMA0tUSDEQMA4GA1UECwwHU3R1ZGVu
dDEoMCYGA1UEAwwfVGFuZ3l1anVuIEhhbiB0YW5naGFuQGt0aC5zZSBDQTEdMBsG
CSqGSIb3DQEJARYOdGFuZ2hhbkBrdGguc2WCFDwEMXylna5liotKXMdT0DTjFEMz
MA0GCSqGSIb3DQEBCwUAA4IBAQCh6P5EDcvdkAFRISgwDl8VBGnaIXMxm9kLpeh0
E5cW7EAta849HDFn26Hzfxb5VCHlslJMRKV0s942aToFEOHVCLk3oiUwqW7b20QH
1v5Ud47a6yeNfEoznCQrsptKQs4EDLqr014BdgE09vkQfTfjnC1ORH317vhxjoXW
y9obgFHIEFaPyktWAtW/VWW7tGhuyVdXEukAl6XSQKqpDmBe9Hg0+E+yEOXZeaJF
BHZBQ4V89atQFxJIvUC2DyQ/FlbucWV4R99uAatHMCxDG++ggdROmLw77gMO5/2r
j/u0DCuNfXJIFFhsZ4fAXGkFUuyNGf/LHiOBsVqX2nLk1ieM
-----END CERTIFICATE-----
